target datalayout = "e-m:e-p270:32:32-p271:32:32-p272:64:64-i64:64-i128:128-f80:128-n8:16:32:64-S128"
target triple = "x86_64-pc-linux-gnu"

%struct._object = type { %union.anon, ptr }
%union.anon = type { i64 }
%struct.lzma_filter = type { i64, ptr }
%struct._lzma_state = type { ptr, ptr, ptr, ptr }
%struct.lzma_options_lzma = type { i32, ptr, i32, i32, i32, i32, i32, i32, i32, i32, i32, i32, i32, i32, i32, i32, i32, i32, i32, i32, i32, i32, ptr, ptr }

@PyExc_ValueError = external global ptr, align 8
@.str.18 = private unnamed_addr constant [31 x i8] c"Invalid compression preset: %u\00", align 1
@_Py_NoneStruct = external global %struct._object, align 8
@.str.87 = private unnamed_addr constant [70 x i8] c"Invalid filter chain for FORMAT_ALONE - must be a single LZMA1 filter\00", align 1

; Function Attrs: nounwind uwtable
define internal void @free_filter_chain(ptr noundef %0) #0 {
  %2 = alloca ptr, align 8
  %3 = alloca i32, align 4
  store ptr %0, ptr %2, align 8, !tbaa !8
  call void @llvm.lifetime.start.p0(i64 4, ptr %3) #9
  store i32 0, ptr %3, align 4, !tbaa !12
  br label %4

4:                                                ; preds = %20, %1
  %5 = load ptr, ptr %2, align 8, !tbaa !8
  %6 = load i32, ptr %3, align 4, !tbaa !12
  %7 = sext i32 %6 to i64
  %8 = getelementptr %struct.lzma_filter, ptr %5, i64 %7
  %9 = getelementptr inbounds nuw %struct.lzma_filter, ptr %8, i32 0, i32 0
  %10 = load i64, ptr %9, align 8, !tbaa !22
  %11 = icmp ne i64 %10, -1
  br i1 %11, label %13, label %12

12:                                               ; preds = %4
  call void @llvm.lifetime.end.p0(i64 4, ptr %3) #9
  br label %23

13:                                               ; preds = %4
  %14 = load ptr, ptr %2, align 8, !tbaa !8
  %15 = load i32, ptr %3, align 4, !tbaa !12
  %16 = sext i32 %15 to i64
  %17 = getelementptr %struct.lzma_filter, ptr %14, i64 %16
  %18 = getelementptr inbounds nuw %struct.lzma_filter, ptr %17, i32 0, i32 1
  %19 = load ptr, ptr %18, align 8, !tbaa !25
  call void @PyMem_Free(ptr noundef %19)
  br label %20

20:                                               ; preds = %13
  %21 = load i32, ptr %3, align 4, !tbaa !12
  %22 = add i32 %21, 1
  store i32 %22, ptr %3, align 4, !tbaa !12
  br label %4, !llvm.loop !85

23:                                               ; preds = %12
  ret void
}

; Function Attrs: nounwind uwtable
define internal i32 @Compressor_init_alone(ptr noundef %0, ptr noundef %1, i32 noundef %2, ptr noundef %3) #0 {
  %5 = alloca i32, align 4
  %6 = alloca ptr, align 8
  %7 = alloca ptr, align 8
  %8 = alloca i32, align 4
  %9 = alloca ptr, align 8
  %10 = alloca i32, align 4
  %11 = alloca %struct.lzma_options_lzma, align 8
  %12 = alloca i32, align 4
  %13 = alloca [5 x %struct.lzma_filter], align 16
  store ptr %0, ptr %6, align 8, !tbaa !8
  store ptr %1, ptr %7, align 8, !tbaa !8
  store i32 %2, ptr %8, align 4, !tbaa !12
  store ptr %3, ptr %9, align 8, !tbaa !3
  call void @llvm.lifetime.start.p0(i64 4, ptr %10) #9
  %14 = load ptr, ptr %9, align 8, !tbaa !3
  %15 = icmp eq ptr %14, @_Py_NoneStruct
  br i1 %15, label %16, label %32

16:                                               ; preds = %4
  call void @llvm.lifetime.start.p0(i64 112, ptr %11) #9
  %17 = load i32, ptr %8, align 4, !tbaa !12
  %18 = call zeroext i8 @lzma_lzma_preset(ptr noundef %11, i32 noundef %17) #9
  %19 = icmp ne i8 %18, 0
  br i1 %19, label %20, label %26

20:                                               ; preds = %16
  %21 = load ptr, ptr %6, align 8, !tbaa !8
  %22 = getelementptr inbounds nuw %struct._lzma_state, ptr %21, i32 0, i32 2
  %23 = load ptr, ptr %22, align 8, !tbaa !15
  %24 = load i32, ptr %8, align 4, !tbaa !12
  %25 = call ptr (ptr, ptr, ...) @PyErr_Format(ptr noundef %23, ptr noundef @.str.18, i32 noundef %24)
  store i32 -1, ptr %5, align 4
  store i32 1, ptr %12, align 4
  br label %29

26:                                               ; preds = %16
  %27 = load ptr, ptr %7, align 8, !tbaa !8
  %28 = call i32 @lzma_alone_encoder(ptr noundef %27, ptr noundef %11) #9
  store i32 %28, ptr %10, align 4, !tbaa !12
  store i32 0, ptr %12, align 4
  br label %29

29:                                               ; preds = %26, %20
  call void @llvm.lifetime.end.p0(i64 112, ptr %11) #9
  %30 = load i32, ptr %12, align 4
  switch i32 %30, label %72 [
    i32 0, label %31
  ]

31:                                               ; preds = %29
  br label %62

32:                                               ; preds = %4
  call void @llvm.lifetime.start.p0(i64 80, ptr %13) #9
  %33 = load ptr, ptr %6, align 8, !tbaa !8
  %34 = getelementptr inbounds [5 x %struct.lzma_filter], ptr %13, i64 0, i64 0
  %35 = load ptr, ptr %9, align 8, !tbaa !3
  %36 = call i32 @parse_filter_chain_spec(ptr noundef %33, ptr noundef %34, ptr noundef %35)
  %37 = icmp eq i32 %36, -1
  br i1 %37, label %38, label %39

38:                                               ; preds = %32
  store i32 -1, ptr %5, align 4
  store i32 1, ptr %12, align 4
  br label %59

39:                                               ; preds = %32
  %40 = getelementptr [5 x %struct.lzma_filter], ptr %13, i64 0, i64 0
  %41 = getelementptr inbounds nuw %struct.lzma_filter, ptr %40, i32 0, i32 0
  %42 = load i64, ptr %41, align 16, !tbaa !22
  %43 = icmp eq i64 %42, 4611686018427387905
  br i1 %43, label %44, label %55

44:                                               ; preds = %39
  %45 = getelementptr [5 x %struct.lzma_filter], ptr %13, i64 0, i64 1
  %46 = getelementptr inbounds nuw %struct.lzma_filter, ptr %45, i32 0, i32 0
  %47 = load i64, ptr %46, align 16, !tbaa !22
  %48 = icmp eq i64 %47, -1
  br i1 %48, label %49, label %55

49:                                               ; preds = %44
  %50 = load ptr, ptr %7, align 8, !tbaa !8
  %51 = getelementptr [5 x %struct.lzma_filter], ptr %13, i64 0, i64 0
  %52 = getelementptr inbounds nuw %struct.lzma_filter, ptr %51, i32 0, i32 1
  %53 = load ptr, ptr %52, align 8, !tbaa !25
  %54 = call i32 @lzma_alone_encoder(ptr noundef %50, ptr noundef %53) #9
  store i32 %54, ptr %10, align 4, !tbaa !12
  br label %57

55:                                               ; preds = %44, %39
  %56 = load ptr, ptr @PyExc_ValueError, align 8, !tbaa !3
  call void @PyErr_SetString(ptr noundef %56, ptr noundef @.str.87)
  store i32 11, ptr %10, align 4, !tbaa !12
  br label %57

57:                                               ; preds = %55, %49
  %58 = getelementptr inbounds [5 x %struct.lzma_filter], ptr %13, i64 0, i64 0
  call void @free_filter_chain(ptr noundef %58)
  store i32 0, ptr %12, align 4
  br label %59

59:                                               ; preds = %57, %38
  call void @llvm.lifetime.end.p0(i64 80, ptr %13) #9
  %60 = load i32, ptr %12, align 4
  switch i32 %60, label %72 [
    i32 0, label %61
  ]

61:                                               ; preds = %59
  br label %62

62:                                               ; preds = %61, %31
  %63 = call ptr @PyErr_Occurred()
  %64 = icmp ne ptr %63, null
  br i1 %64, label %70, label %65

65:                                               ; preds = %62
  %66 = load ptr, ptr %6, align 8, !tbaa !8
  %67 = load i32, ptr %10, align 4, !tbaa !12
  %68 = call i32 @catch_lzma_error(ptr noundef %66, i32 noundef %67)
  %69 = icmp ne i32 %68, 0
  br i1 %69, label %70, label %71

70:                                               ; preds = %65, %62
  store i32 -1, ptr %5, align 4
  store i32 1, ptr %12, align 4
  br label %72

71:                                               ; preds = %65
  store i32 0, ptr %5, align 4
  store i32 1, ptr %12, align 4
  br label %72

72:                                               ; preds = %71, %70, %59, %29
  call void @llvm.lifetime.end.p0(i64 4, ptr %10) #9
  %73 = load i32, ptr %5, align 4
  ret i32 %73
}