; Function Attrs: nounwind uwtable
define internal fastcc range(i32 -1, 1) i32 @Compressor_init_alone(ptr noundef readonly captures(none) %0, ptr noundef nonnull %1, i32 noundef %2, ptr noundef %3) unnamed_addr #0 {
  %5 = alloca %struct.lzma_options_lzma, align 8
  %6 = alloca [5 x %struct.lzma_filter], align 16
  %7 = icmp eq ptr %3, @_Py_NoneStruct
  br i1 %7, label %8, label %15

8:                                                ; preds = %4
  call void @llvm.lifetime.start.p0(i64 112, ptr nonnull %5) #10
  %9 = call zeroext i8 @lzma_lzma_preset(ptr noundef nonnull %5, i32 noundef %2) #10
  %.not22 = icmp eq i8 %9, 0
  br i1 %.not22, label %.thread, label %11

.thread:                                          ; preds = %8
  %10 = call i32 @lzma_alone_encoder(ptr noundef nonnull %1, ptr noundef nonnull %5) #10
  call void @llvm.lifetime.end.p0(i64 112, ptr nonnull %5) #10
  br label %35

11:                                               ; preds = %8
  %12 = getelementptr inbounds nuw i8, ptr %0, i64 16
  %13 = load ptr, ptr %12, align 8, !tbaa !11
  %14 = call ptr (ptr, ptr, ...) @PyErr_Format(ptr noundef %13, ptr noundef nonnull @.str.18, i32 noundef %2) #10
  call void @llvm.lifetime.end.p0(i64 112, ptr nonnull %5) #10
  br label %39

15:                                               ; preds = %4
  call void @llvm.lifetime.start.p0(i64 80, ptr nonnull %6) #10
  %16 = call fastcc i32 @parse_filter_chain_spec(ptr noundef %0, ptr noundef %6, ptr noundef %3)
  %.not = icmp eq i32 %16, -1
  br i1 %.not, label %free_filter_chain.exit.thread, label %17

free_filter_chain.exit.thread:                    ; preds = %15
  call void @llvm.lifetime.end.p0(i64 80, ptr nonnull %6) #10
  br label %39

17:                                               ; preds = %15
  %18 = load i64, ptr %6, align 16, !tbaa !16
  %19 = icmp eq i64 %18, 4611686018427387905
  %20 = getelementptr inbounds nuw i8, ptr %6, i64 16
  %21 = load i64, ptr %20, align 16
  %22 = icmp eq i64 %21, -1
  %or.cond = select i1 %19, i1 %22, i1 false
  br i1 %or.cond, label %.thread29, label %26

.thread29:                                        ; preds = %17
  %23 = getelementptr inbounds nuw i8, ptr %6, i64 8
  %24 = load ptr, ptr %23, align 8, !tbaa !21
  %25 = tail call i32 @lzma_alone_encoder(ptr noundef nonnull %1, ptr noundef %24) #10
  br label %.lr.ph.i.preheader

26:                                               ; preds = %17
  %27 = load ptr, ptr @PyExc_ValueError, align 8, !tbaa !15
  tail call void @PyErr_SetString(ptr noundef %27, ptr noundef nonnull @.str.87) #10
  %.not4.i = icmp eq i64 %18, -1
  br i1 %.not4.i, label %free_filter_chain.exit.thread27, label %.lr.ph.i.preheader

.lr.ph.i.preheader:                               ; preds = %.thread29, %26
  %.332 = phi i32 [ %25, %.thread29 ], [ 11, %26 ]
  br label %.lr.ph.i

free_filter_chain.exit.thread27:                  ; preds = %26
  call void @llvm.lifetime.end.p0(i64 80, ptr nonnull %6) #10
  br label %35

.lr.ph.i:                                         ; preds = %.lr.ph.i.preheader, %.lr.ph.i
  %28 = phi ptr [ %33, %.lr.ph.i ], [ %6, %.lr.ph.i.preheader ]
  %.05.i = phi i32 [ %31, %.lr.ph.i ], [ 0, %.lr.ph.i.preheader ]
  %29 = getelementptr inbounds nuw i8, ptr %28, i64 8
  %30 = load ptr, ptr %29, align 8, !tbaa !21
  tail call void @PyMem_Free(ptr noundef %30) #10
  %31 = add i32 %.05.i, 1
  %32 = sext i32 %31 to i64
  %33 = getelementptr %struct.lzma_filter, ptr %6, i64 %32
  %34 = load i64, ptr %33, align 16, !tbaa !16
  %.not.i = icmp eq i64 %34, -1
  br i1 %.not.i, label %free_filter_chain.exit, label %.lr.ph.i, !llvm.loop !73

free_filter_chain.exit:                           ; preds = %.lr.ph.i
  call void @llvm.lifetime.end.p0(i64 80, ptr nonnull %6) #10
  br label %35

35:                                               ; preds = %free_filter_chain.exit, %free_filter_chain.exit.thread27, %.thread
  %.117 = phi i32 [ %.332, %free_filter_chain.exit ], [ %10, %.thread ], [ 11, %free_filter_chain.exit.thread27 ]
  %36 = call ptr @PyErr_Occurred() #10
  %.not23 = icmp eq ptr %36, null
  br i1 %.not23, label %37, label %39

37:                                               ; preds = %35
  %38 = call fastcc i32 @catch_lzma_error(ptr noundef %0, i32 noundef %.117)
  %sext = sub nsw i32 0, %38
  br label %39

39:                                               ; preds = %free_filter_chain.exit.thread, %11, %37, %35
  %.119 = phi i32 [ -1, %11 ], [ -1, %35 ], [ %sext, %37 ], [ -1, %free_filter_chain.exit.thread ]
  ret i32 %.119
}